Certificate:
    Data:
        Version: 3 (0x2)
        Serial Number: 404 (0x194)
        Signature Algorithm: sha1WithRSAEncryption
        Issuer: C=UG, L=Tropic, O=Utopia, OU=Relaxation, CN=the trusted CA
        Validity
            Not Before: Feb  9 18:47:46 2012 GMT
            Not After : Oct 18 18:47:46 2025 GMT
        Subject: C=UG, L=Tropic, O=Utopia, OU=Relaxation, CN=trusted clientserver
        Subject Public Key Info:
            Public Key Algorithm: rsaEncryption
                Public-Key: (1024 bit)
                Modulus:
                    00:b9:27:21:4b:ab:5a:0b:aa:cf:5a:ed:3a:60:97:
                    46:ef:22:dd:b9:73:b5:56:a7:fb:bb:19:1a:33:42:
                    6b:9f:58:2f:76:22:b0:e6:32:d4:be:12:f4:6f:cb:
                    3e:64:fe:35:d3:18:7c:6d:34:10:fe:e1:5f:fa:9d:
                    99:56:45:96:67:6a:24:92:d0:c5:34:20:d5:61:c1:
                    3e:0c:eb:2d:48:7d:75:71:56:28:b6:b6:56:27:ab:
                    a1:12:c8:c4:22:be:60:b7:91:f6:e4:71:3e:b3:2a:
                    1c:3d:f3:32:ad:f6:b7:c0:02:22:a8:0e:e3:e9:18:
                    1b:d9:cf:76:6d:b3:96:d5:e5
                Exponent: 65537 (0x10001)
        X509v3 extensions:
            X509v3 Basic Constraints: 
                CA:FALSE
            X509v3 Key Usage: critical
                Digital Signature, Non Repudiation, Key Encipherment
            Netscape Cert Type: 
                SSL Client, SSL Server, S/MIME
            Netscape Comment: 
                OpenSSL Generated Client Server Certificate
    Signature Algorithm: sha1WithRSAEncryption
        6e:f6:8d:6a:7b:7a:36:8a:cb:d5:91:24:92:42:82:1b:bf:a2:
        13:f4:94:0e:ea:3b:80:ba:bd:c5:ec:b3:d4:94:09:50:ce:d6:
        0a:18:99:2c:16:42:75:d4:4b:a4:0f:66:c1:38:5d:dd:70:aa:
        b4:9d:c1:1d:07:a5:7b:3b:97:a6:66:04:bb:69:85:be:ae:4f:
        f1:32:32:0d:fb:6b:cf:a7:7a:60:58:17:be:25:b7:c7:21:ba:
        6e:3f:f6:57:81:53:2a:52:d4:74:8e:8d:77:da:5e:39:ac:96:
        a9:f0:eb:f2:1f:a9:b5:7f:b6:12:ca:2f:22:d5:80:c8:44:d1:
        0f:99
-----BEGIN CERTIFICATE-----
MIICozCCAgygAwIBAgICAZQwDQYJKoZIhvcNAQEFBQAwXTELMAkGA1UEBhMCVUcx
DzANBgNVBAcTBlRyb3BpYzEPMA0GA1UEChMGVXRvcGlhMRMwEQYDVQQLEwpSZWxh
eGF0aW9uMRcwFQYDVQQDEw50aGUgdHJ1c3RlZCBDQTAeFw0xMjAyMDkxODQ3NDZa
Fw0yNTEwMTgxODQ3NDZaMGMxCzAJBgNVBAYTAlVHMQ8wDQYDVQQHEwZUcm9waWMx
DzANBgNVBAoTBlV0b3BpYTETMBEGA1UECxMKUmVsYXhhdGlvbjEdMBsGA1UEAxMU
dHJ1c3RlZCBjbGllbnRzZXJ2ZXIwgZ8wDQYJKoZIhvcNAQEBBQADgY0AMIGJAoGB
ALknIUurWguqz1rtOmCXRu8i3blztVan+7sZGjNCa59YL3YisOYy1L4S9G/LPmT+
NdMYfG00EP7hX/qdmVZFlmdqJJLQxTQg1WHBPgzrLUh9dXFWKLa2VieroRLIxCK+
YLeR9uRxPrMqHD3zMq32t8ACIqgO4+kYG9nPdm2zltXlAgMBAAGjbDBqMAkGA1Ud
EwQCMAAwDgYDVR0PAQH/BAQDAgXgMBEGCWCGSAGG+EIBAQQEAwIF4DA6BglghkgB
hvhCAQ0ELRYrT3BlblNTTCBHZW5lcmF0ZWQgQ2xpZW50IFNlcnZlciBDZXJ0aWZp
Y2F0ZTANBgkqhkiG9w0BAQUFAAOBgQBu9o1qe3o2isvVkSSSQoIbv6IT9JQO6juA
ur3F7LPUlAlQztYKGJksFkJ11EukD2bBOF3dcKq0ncEdB6V7O5emZgS7aYW+rk/x
MjIN+2vPp3pgWBe+JbfHIbpuP/ZXgVMqUtR0jo132l45rJap8OvyH6m1f7YSyi8i
1YDIRNEPmQ==
-----END CERTIFICATE-----
